target datalayout = "e-m:e-p270:32:32-p271:32:32-p272:64:64-i64:64-i128:128-f80:128-n8:16:32:64-S128"
target triple = "x86_64-pc-linux-gnu"

%struct.dump_config = type { i64, i64, i64, ptr, ptr, i64, i64, i64, i64, i8, i32, i64, i64, i64, [4096 x i8] }

@.str.104 = private unnamed_addr constant [4 x i8] c"]}\0A\00", align 1

; Function Attrs: inlinehint nounwind sspstrong willreturn memory(none) uwtable
define internal zeroext i1 @RB_TEST(i64 noundef %0) #4 {
  %2 = alloca i64, align 8
  store i64 %0, ptr %2, align 8, !tbaa !6
  %3 = load i64, ptr %2, align 8, !tbaa !6
  %4 = and i64 %3, -5
  %5 = icmp ne i64 %4, 0
  ret i1 %5
}

; Function Attrs: nounwind sspstrong uwtable
define internal i64 @objspace_dump_all(i64 noundef %0, i64 noundef %1, i64 noundef %2, i64 noundef %3, i64 noundef %4) #0 {
  %6 = alloca i64, align 8
  %7 = alloca i64, align 8
  %8 = alloca i64, align 8
  %9 = alloca i64, align 8
  %10 = alloca i64, align 8
  %11 = alloca %struct.dump_config, align 8
  store i64 %0, ptr %6, align 8, !tbaa !6
  store i64 %1, ptr %7, align 8, !tbaa !6
  store i64 %2, ptr %8, align 8, !tbaa !6
  store i64 %3, ptr %9, align 8, !tbaa !6
  store i64 %4, ptr %10, align 8, !tbaa !6
  call void @llvm.lifetime.start.p0(i64 4200, ptr %11) #21
  call void @llvm.memset.p0.i64(ptr align 8 %11, i8 0, i64 4200, i1 false)
  %12 = load i64, ptr %7, align 8, !tbaa !6
  %13 = load i64, ptr %8, align 8, !tbaa !6
  %14 = load i64, ptr %9, align 8, !tbaa !6
  %15 = load i64, ptr %10, align 8, !tbaa !6
  call void @dump_output(ptr noundef %11, i64 noundef %12, i64 noundef %13, i64 noundef %14, i64 noundef %15)
  %16 = getelementptr inbounds nuw %struct.dump_config, ptr %11, i32 0, i32 10
  %17 = load i32, ptr %16, align 4, !tbaa !16
  %18 = icmp ne i32 %17, 0
  br i1 %18, label %19, label %23

19:                                               ; preds = %5
  %20 = getelementptr inbounds nuw %struct.dump_config, ptr %11, i32 0, i32 11
  %21 = load i64, ptr %20, align 8, !tbaa !17
  %22 = icmp eq i64 %21, 0
  br i1 %22, label %23, label %31

23:                                               ; preds = %19, %5
  call void @rb_objspace_reachable_objects_from_root(ptr noundef @root_obj_i, ptr noundef %11)
  %24 = getelementptr inbounds nuw %struct.dump_config, ptr %11, i32 0, i32 9
  %25 = load i8, ptr %24, align 8
  %26 = and i8 %25, 1
  %27 = zext i8 %26 to i32
  %28 = icmp ne i32 %27, 0
  br i1 %28, label %29, label %30

29:                                               ; preds = %23
  call void @buffer_append(ptr noundef %11, ptr noundef @.str.104, i64 noundef 3)
  br label %30

30:                                               ; preds = %29, %23
  br label %31

31:                                               ; preds = %30, %19
  %32 = load i64, ptr %10, align 8, !tbaa !6
  %33 = call zeroext i1 @RB_TEST(i64 noundef %32) #22
  br i1 %33, label %34, label %35

34:                                               ; preds = %31
  call void @rb_shape_each_shape(ptr noundef @shape_i, ptr noundef %11)
  br label %35

35:                                               ; preds = %34, %31
  call void @rb_objspace_each_objects(ptr noundef @heap_i, ptr noundef %11)
  %36 = call i64 @dump_result(ptr noundef %11)
  call void @llvm.lifetime.end.p0(i64 4200, ptr %11) #21
  ret i64 %36
}