; Function Attrs: nounwind sspstrong uwtable
define internal i64 @objspace_dump_all(i64 %0, i64 noundef %1, i64 noundef %2, i64 noundef %3, i64 noundef %4) #0 {
  %6 = alloca %struct.dump_config, align 8
  call void @llvm.lifetime.start.p0(i64 4200, ptr nonnull %6) #12
  %7 = getelementptr inbounds nuw i8, ptr %6, i64 8
  call void @llvm.memset.p0.i64(ptr noundef nonnull align 8 dereferenceable(4200) %7, i8 0, i64 4192, i1 false)
  call fastcc void @dump_output(ptr noundef %6, i64 noundef %1, i64 noundef %2, i64 noundef %3, i64 noundef %4)
  %8 = getelementptr inbounds nuw i8, ptr %6, i64 76
  %9 = load i32, ptr %8, align 4, !tbaa !25
  %10 = icmp eq i32 %9, 0
  %11 = getelementptr inbounds nuw i8, ptr %6, i64 80
  %12 = load i64, ptr %11, align 8
  %13 = icmp eq i64 %12, 0
  %or.cond = select i1 %10, i1 true, i1 %13
  br i1 %or.cond, label %14, label %19

14:                                               ; preds = %5
  call void @rb_objspace_reachable_objects_from_root(ptr noundef nonnull @root_obj_i, ptr noundef nonnull %6) #12
  %15 = getelementptr inbounds nuw i8, ptr %6, i64 72
  %16 = load i8, ptr %15, align 8
  %17 = and i8 %16, 1
  %.not = icmp eq i8 %17, 0
  br i1 %.not, label %19, label %18

18:                                               ; preds = %14
  call fastcc void @buffer_append(ptr noundef nonnull %6, ptr noundef nonnull @.str.104, i64 noundef 3)
  br label %19

19:                                               ; preds = %14, %18, %5
  %20 = and i64 %4, -5
  %.not7 = icmp eq i64 %20, 0
  br i1 %.not7, label %22, label %21

21:                                               ; preds = %19
  call void @rb_shape_each_shape(ptr noundef nonnull @shape_i, ptr noundef nonnull %6) #12
  br label %22

22:                                               ; preds = %21, %19
  call void @rb_objspace_each_objects(ptr noundef nonnull @heap_i, ptr noundef nonnull %6) #12
  %23 = call fastcc i64 @dump_result(ptr noundef %6)
  call void @llvm.lifetime.end.p0(i64 4200, ptr nonnull %6) #12
  ret i64 %23
}